CCS PCM C Compiler, Version 5.015, 5967               29-May-25 20:57

               Filename:   E:\University\Nam 3\2024_2025_HK2\Vi xu ly\Giai_de_vxl_hk1_19_20\Cau1\Cau1.lst

               ROM used:   959 words (12%)
                           Largest free fragment is 2048
               RAM used:   10 (3%) at main() level
                           25 (7%) worst case
               Stack used: 4 locations
               Stack size: 8

*
0000:  MOVLW  03
0001:  MOVWF  0A
0002:  GOTO   379
0003:  NOP
.................... #include<16f887.h> 
.................... //////////// Standard Header file for the PIC16F887 device //////////////// 
.................... /////////////////////////////////////////////////////////////////////////// 
.................... ////        (C) Copyright 1996, 2013 Custom Computer Services          //// 
.................... //// This source code may only be used by licensed users of the CCS C  //// 
.................... //// compiler.  This source code may only be distributed to other      //// 
.................... //// licensed users of the CCS C compiler.  No other use, reproduction //// 
.................... //// or distribution is permitted without written permission.          //// 
.................... //// Derivative programs created using this software in object code    //// 
.................... //// form are not restricted in any way.                               //// 
.................... /////////////////////////////////////////////////////////////////////////// 
.................... #device PIC16F887 
0004:  DATA 25,18
0005:  DATA 32,36
0006:  DATA 75,10
0007:  DATA E4,37
0008:  DATA A0,21
0009:  DATA 00,00
000A:  DATA 25,18
000B:  DATA 32,36
000C:  DATA 75,10
000D:  DATA E4,37
000E:  DATA A0,21
000F:  DATA 00,00
0010:  DATA 51,17
0011:  DATA 4E,24
0012:  DATA C9,22
0013:  DATA 54,10
0014:  DATA 20,10
0015:  DATA CC,26
0016:  DATA B3,1A
0017:  DATA 2D,1A
0018:  DATA 00,00
0019:  DATA CC,26
001A:  DATA B3,1A
001B:  DATA 2D,19
001C:  DATA 20,10
001D:  DATA A0,28
001E:  DATA 2E,27
001F:  DATA C8,24
0020:  DATA 45,2A
0021:  DATA 00,01
0022:  DATA 51,17
0023:  DATA 4E,24
0024:  DATA C9,22
0025:  DATA 54,10
0026:  DATA A0,28
0027:  DATA 2E,27
0028:  DATA C8,24
0029:  DATA 45,2A
002A:  DATA 00,00
002B:  DATA CC,26
002C:  DATA B3,1A
002D:  DATA 2D,19
002E:  DATA 20,10
002F:  DATA 20,10
0030:  DATA CC,26
0031:  DATA B3,1A
0032:  DATA 2D,1A
0033:  DATA 00,00
*
009B:  MOVF   0B,W
009C:  MOVWF  25
009D:  BCF    0B.7
009E:  BSF    03.5
009F:  BSF    03.6
00A0:  BSF    0C.7
00A1:  BSF    0C.0
00A2:  NOP
00A3:  NOP
00A4:  BCF    03.5
00A5:  BCF    03.6
00A6:  BTFSC  25.7
00A7:  BSF    0B.7
00A8:  BSF    03.6
00A9:  MOVF   0C,W
00AA:  ANDLW  7F
00AB:  BTFSC  03.2
00AC:  GOTO   0EF
00AD:  BCF    03.6
00AE:  MOVWF  25
00AF:  BSF    03.6
00B0:  MOVF   0D,W
00B1:  BCF    03.6
00B2:  MOVWF  26
00B3:  BSF    03.6
00B4:  MOVF   0F,W
00B5:  BCF    03.6
00B6:  MOVWF  27
00B7:  MOVF   25,W
00B8:  MOVWF  2E
00B9:  CALL   082
00BA:  MOVF   26,W
00BB:  BSF    03.6
00BC:  MOVWF  0D
00BD:  BCF    03.6
00BE:  MOVF   27,W
00BF:  BSF    03.6
00C0:  MOVWF  0F
00C1:  BCF    03.6
00C2:  MOVF   0B,W
00C3:  MOVWF  28
00C4:  BCF    0B.7
00C5:  BSF    03.5
00C6:  BSF    03.6
00C7:  BSF    0C.7
00C8:  BSF    0C.0
00C9:  NOP
00CA:  NOP
00CB:  BCF    03.5
00CC:  BCF    03.6
00CD:  BTFSC  28.7
00CE:  BSF    0B.7
00CF:  BSF    03.6
00D0:  RLF    0C,W
00D1:  RLF    0E,W
00D2:  ANDLW  7F
00D3:  BTFSC  03.2
00D4:  GOTO   0EF
00D5:  BCF    03.6
00D6:  MOVWF  25
00D7:  BSF    03.6
00D8:  MOVF   0D,W
00D9:  BCF    03.6
00DA:  MOVWF  26
00DB:  BSF    03.6
00DC:  MOVF   0F,W
00DD:  BCF    03.6
00DE:  MOVWF  27
00DF:  MOVF   25,W
00E0:  MOVWF  2E
00E1:  CALL   082
00E2:  MOVF   26,W
00E3:  BSF    03.6
00E4:  MOVWF  0D
00E5:  BCF    03.6
00E6:  MOVF   27,W
00E7:  BSF    03.6
00E8:  MOVWF  0F
00E9:  INCF   0D,F
00EA:  BTFSC  03.2
00EB:  INCF   0F,F
00EC:  BCF    03.6
00ED:  GOTO   09B
00EE:  BSF    03.6
00EF:  BCF    03.6
00F0:  RETURN
00F1:  MOVLW  8E
00F2:  MOVWF  77
00F3:  MOVF   28,W
00F4:  MOVWF  78
00F5:  MOVF   27,W
00F6:  MOVWF  79
00F7:  CLRF   7A
00F8:  MOVF   78,F
00F9:  BTFSS  03.2
00FA:  GOTO   105
00FB:  MOVF   79,W
00FC:  MOVWF  78
00FD:  CLRF   79
00FE:  MOVLW  08
00FF:  SUBWF  77,F
0100:  MOVF   78,F
0101:  BTFSS  03.2
0102:  GOTO   105
0103:  CLRF   77
0104:  GOTO   10D
0105:  BCF    03.0
0106:  BTFSC  78.7
0107:  GOTO   10C
0108:  RLF    79,F
0109:  RLF    78,F
010A:  DECF   77,F
010B:  GOTO   105
010C:  BCF    78.7
010D:  RETURN
010E:  MOVF   27,W
010F:  BTFSC  03.2
0110:  GOTO   17E
0111:  MOVWF  2F
0112:  MOVF   2B,W
0113:  BTFSC  03.2
0114:  GOTO   17E
0115:  ADDWF  2F,F
0116:  BTFSC  03.0
0117:  GOTO   11F
0118:  MOVLW  7F
0119:  SUBWF  2F,F
011A:  BTFSS  03.0
011B:  GOTO   17E
011C:  BTFSC  03.2
011D:  GOTO   17E
011E:  GOTO   123
011F:  MOVLW  81
0120:  ADDWF  2F,F
0121:  BTFSC  03.0
0122:  GOTO   17E
0123:  MOVF   2F,W
0124:  MOVWF  77
0125:  CLRF   78
0126:  CLRF   79
0127:  CLRF   7A
0128:  MOVF   28,W
0129:  MOVWF  33
012A:  BSF    33.7
012B:  MOVF   29,W
012C:  MOVWF  32
012D:  MOVF   2A,W
012E:  MOVWF  31
012F:  MOVLW  18
0130:  MOVWF  2F
0131:  CLRF   30
0132:  BTFSS  31.0
0133:  GOTO   14C
0134:  MOVF   2E,W
0135:  ADDWF  7A,F
0136:  BTFSS  03.0
0137:  GOTO   13E
0138:  INCF   79,F
0139:  BTFSS  03.2
013A:  GOTO   13E
013B:  INCF   78,F
013C:  BTFSC  03.2
013D:  BSF    30.7
013E:  MOVF   2D,W
013F:  ADDWF  79,F
0140:  BTFSS  03.0
0141:  GOTO   145
0142:  INCF   78,F
0143:  BTFSC  03.2
0144:  BSF    30.7
0145:  MOVF   2C,W
0146:  MOVWF  29
0147:  BSF    29.7
0148:  MOVF   29,W
0149:  ADDWF  78,F
014A:  BTFSC  03.0
014B:  BSF    30.7
014C:  RLF    30,F
014D:  RRF    78,F
014E:  RRF    79,F
014F:  RRF    7A,F
0150:  RRF    33,F
0151:  RRF    32,F
0152:  RRF    31,F
0153:  BCF    03.0
0154:  DECFSZ 2F,F
0155:  GOTO   131
0156:  MOVLW  01
0157:  ADDWF  77,F
0158:  BTFSC  03.0
0159:  GOTO   17E
015A:  BTFSC  78.7
015B:  GOTO   163
015C:  RLF    33,F
015D:  RLF    7A,F
015E:  RLF    79,F
015F:  RLF    78,F
0160:  DECF   77,F
0161:  BTFSC  03.2
0162:  GOTO   17E
0163:  BTFSS  33.7
0164:  GOTO   174
0165:  INCF   7A,F
0166:  BTFSS  03.2
0167:  GOTO   174
0168:  INCF   79,F
0169:  BTFSS  03.2
016A:  GOTO   174
016B:  INCF   78,F
016C:  BTFSS  03.2
016D:  GOTO   174
016E:  RRF    78,F
016F:  RRF    79,F
0170:  RRF    7A,F
0171:  INCF   77,F
0172:  BTFSC  03.2
0173:  GOTO   17E
0174:  MOVF   28,W
0175:  MOVWF  30
0176:  MOVF   2C,W
0177:  XORWF  30,F
0178:  BTFSS  30.7
0179:  GOTO   17C
017A:  BSF    78.7
017B:  GOTO   182
017C:  BCF    78.7
017D:  GOTO   182
017E:  CLRF   77
017F:  CLRF   78
0180:  CLRF   79
0181:  CLRF   7A
0182:  RETURN
0183:  MOVLW  8E
0184:  MOVWF  77
0185:  MOVF   25,W
0186:  SUBWF  77,F
0187:  MOVF   26,W
0188:  MOVWF  79
0189:  MOVF   27,W
018A:  MOVWF  78
018B:  BSF    79.7
018C:  MOVF   77,F
018D:  BTFSC  03.2
018E:  GOTO   19A
018F:  BCF    03.0
0190:  MOVF   79,F
0191:  BTFSS  03.2
0192:  GOTO   196
0193:  MOVF   78,F
0194:  BTFSC  03.2
0195:  GOTO   19A
0196:  RRF    79,F
0197:  RRF    78,F
0198:  DECFSZ 77,F
0199:  GOTO   18F
019A:  BTFSS  26.7
019B:  GOTO   1A1
019C:  COMF   78,F
019D:  COMF   79,F
019E:  INCF   78,F
019F:  BTFSC  03.2
01A0:  INCF   79,F
01A1:  RETURN
01A2:  CLRF   2D
01A3:  MOVF   04,W
01A4:  MOVWF  2C
01A5:  BCF    2D.0
01A6:  BTFSC  03.7
01A7:  BSF    2D.0
01A8:  SWAPF  26,W
01A9:  IORLW  F0
01AA:  MOVWF  28
01AB:  ADDWF  28,F
01AC:  ADDLW  E2
01AD:  MOVWF  29
01AE:  ADDLW  32
01AF:  MOVWF  2B
01B0:  MOVF   26,W
01B1:  ANDLW  0F
01B2:  ADDWF  29,F
01B3:  ADDWF  29,F
01B4:  ADDWF  2B,F
01B5:  ADDLW  E9
01B6:  MOVWF  2A
01B7:  ADDWF  2A,F
01B8:  ADDWF  2A,F
01B9:  SWAPF  25,W
01BA:  ANDLW  0F
01BB:  ADDWF  2A,F
01BC:  ADDWF  2B,F
01BD:  RLF    2A,F
01BE:  RLF    2B,F
01BF:  COMF   2B,F
01C0:  RLF    2B,F
01C1:  MOVF   25,W
01C2:  ANDLW  0F
01C3:  ADDWF  2B,F
01C4:  RLF    28,F
01C5:  MOVLW  07
01C6:  MOVWF  27
01C7:  MOVLW  0A
01C8:  ADDWF  2B,F
01C9:  DECF   2A,F
01CA:  BTFSS  03.0
01CB:  GOTO   1C8
01CC:  ADDWF  2A,F
01CD:  DECF   29,F
01CE:  BTFSS  03.0
01CF:  GOTO   1CC
01D0:  ADDWF  29,F
01D1:  DECF   28,F
01D2:  BTFSS  03.0
01D3:  GOTO   1D0
01D4:  ADDWF  28,F
01D5:  DECF   27,F
01D6:  BTFSS  03.0
01D7:  GOTO   1D4
01D8:  MOVLW  27
01D9:  MOVWF  04
01DA:  BCF    03.7
01DB:  MOVLW  07
01DC:  ANDWF  2C,W
01DD:  BCF    2C.6
01DE:  ADDWF  04,F
01DF:  MOVLW  2B
01E0:  SUBWF  04,W
01E1:  BTFSC  03.2
01E2:  BSF    2C.6
01E3:  MOVF   00,W
01E4:  MOVWF  77
01E5:  BTFSS  03.2
01E6:  GOTO   1EF
01E7:  BTFSC  2C.6
01E8:  GOTO   1EF
01E9:  BTFSC  2C.4
01EA:  GOTO   201
01EB:  BTFSC  2C.3
01EC:  GOTO   1EF
01ED:  MOVLW  20
01EE:  GOTO   1F2
01EF:  BSF    2C.3
01F0:  BCF    2C.4
01F1:  MOVLW  30
01F2:  ADDWF  77,F
01F3:  CLRF   26
01F4:  MOVF   04,W
01F5:  MOVWF  25
01F6:  BCF    26.0
01F7:  BTFSC  03.7
01F8:  BSF    26.0
01F9:  MOVF   77,W
01FA:  MOVWF  2E
01FB:  CALL   082
01FC:  MOVF   25,W
01FD:  MOVWF  04
01FE:  BCF    03.7
01FF:  BTFSC  26.0
0200:  BSF    03.7
0201:  INCF   04,F
0202:  BTFSS  2C.6
0203:  GOTO   1DF
0204:  RETURN
0205:  MOVF   0B,W
0206:  MOVWF  26
0207:  BCF    0B.7
0208:  BSF    03.5
0209:  BSF    03.6
020A:  BSF    0C.7
020B:  BSF    0C.0
020C:  NOP
020D:  NOP
020E:  BCF    03.5
020F:  BCF    03.6
0210:  BTFSC  26.7
0211:  BSF    0B.7
0212:  BTFSC  03.0
0213:  GOTO   23C
0214:  BSF    03.6
0215:  MOVF   0C,W
0216:  ANDLW  7F
0217:  BCF    03.6
0218:  MOVWF  26
0219:  BSF    03.6
021A:  MOVF   0D,W
021B:  BCF    03.6
021C:  MOVWF  27
021D:  BSF    03.6
021E:  MOVF   0F,W
021F:  BCF    03.6
0220:  MOVWF  28
0221:  MOVF   26,W
0222:  MOVWF  2E
0223:  CALL   082
0224:  MOVF   27,W
0225:  BSF    03.6
0226:  MOVWF  0D
0227:  BCF    03.6
0228:  MOVF   28,W
0229:  BSF    03.6
022A:  MOVWF  0F
022B:  BCF    03.6
022C:  MOVF   0B,W
022D:  MOVWF  29
022E:  BCF    0B.7
022F:  BSF    03.5
0230:  BSF    03.6
0231:  BSF    0C.7
0232:  BSF    0C.0
0233:  NOP
0234:  NOP
0235:  BCF    03.5
0236:  BCF    03.6
0237:  BTFSC  29.7
0238:  BSF    0B.7
0239:  DECFSZ 25,F
023A:  GOTO   23C
023B:  GOTO   25B
023C:  BSF    03.6
023D:  RLF    0C,W
023E:  RLF    0E,W
023F:  ANDLW  7F
0240:  BCF    03.6
0241:  MOVWF  26
0242:  BSF    03.6
0243:  MOVF   0D,W
0244:  BCF    03.6
0245:  MOVWF  27
0246:  BSF    03.6
0247:  MOVF   0F,W
0248:  BCF    03.6
0249:  MOVWF  28
024A:  MOVF   26,W
024B:  MOVWF  2E
024C:  CALL   082
024D:  MOVF   27,W
024E:  BSF    03.6
024F:  MOVWF  0D
0250:  BCF    03.6
0251:  MOVF   28,W
0252:  BSF    03.6
0253:  MOVWF  0F
0254:  INCF   0D,F
0255:  BTFSC  03.2
0256:  INCF   0F,F
0257:  BCF    03.0
0258:  BCF    03.6
0259:  DECFSZ 25,F
025A:  GOTO   205
025B:  RETURN
....................  
.................... #list 
....................  
.................... #device adc=10 
.................... #fuses hs 
.................... #use delay(clock=20M) 
*
0034:  MOVLW  03
0035:  SUBWF  2F,F
0036:  BTFSS  03.0
0037:  GOTO   042
0038:  MOVLW  2F
0039:  MOVWF  04
003A:  BCF    03.7
003B:  MOVF   00,W
003C:  BTFSC  03.2
003D:  GOTO   042
003E:  GOTO   040
003F:  GOTO   040
0040:  DECFSZ 00,F
0041:  GOTO   03F
0042:  RETURN
*
005C:  MOVLW  25
005D:  MOVWF  04
005E:  BCF    03.7
005F:  MOVF   00,W
0060:  BTFSC  03.2
0061:  GOTO   06F
0062:  MOVLW  06
0063:  MOVWF  78
0064:  CLRF   77
0065:  DECFSZ 77,F
0066:  GOTO   065
0067:  DECFSZ 78,F
0068:  GOTO   064
0069:  MOVLW  7B
006A:  MOVWF  77
006B:  DECFSZ 77,F
006C:  GOTO   06B
006D:  DECFSZ 00,F
006E:  GOTO   062
006F:  RETURN
....................  
.................... #define light pin_c1 
.................... #define buzzer pin_c3 
....................  
.................... #define lcd_rs       pin_e0 
.................... #define lcd_rw       pin_e1 
.................... #define lcd_e       pin_e2 
.................... #define output_lcd   output_d 
.................... #include<tv_lcd.c> 
.................... void lcd_command(int8 a) 
.................... { 
....................       output_low(lcd_rw); 
*
0043:  BSF    03.5
0044:  BCF    09.1
0045:  BCF    03.5
0046:  BCF    09.1
....................       output_low(lcd_rs); 
0047:  BSF    03.5
0048:  BCF    09.0
0049:  BCF    03.5
004A:  BCF    09.0
....................       output_lcd(a); 
004B:  BSF    03.5
004C:  CLRF   08
004D:  BCF    03.5
004E:  MOVF   25,W
004F:  MOVWF  08
....................       output_high(lcd_e); 
0050:  BSF    03.5
0051:  BCF    09.2
0052:  BCF    03.5
0053:  BSF    09.2
....................       output_low(lcd_e); 
0054:  BSF    03.5
0055:  BCF    09.2
0056:  BCF    03.5
0057:  BCF    09.2
....................       delay_us(200); 
0058:  MOVLW  C8
0059:  MOVWF  2F
005A:  CALL   034
005B:  RETURN
.................... } 
.................... void lcd_data(int8 a) 
.................... { 
....................       output_low(lcd_rw); 
*
0082:  BSF    03.5
0083:  BCF    09.1
0084:  BCF    03.5
0085:  BCF    09.1
....................       output_high(lcd_rs); 
0086:  BSF    03.5
0087:  BCF    09.0
0088:  BCF    03.5
0089:  BSF    09.0
....................       output_lcd(a); 
008A:  BSF    03.5
008B:  CLRF   08
008C:  BCF    03.5
008D:  MOVF   2E,W
008E:  MOVWF  08
....................       output_high(lcd_e); 
008F:  BSF    03.5
0090:  BCF    09.2
0091:  BCF    03.5
0092:  BSF    09.2
....................       output_low(lcd_e); 
0093:  BSF    03.5
0094:  BCF    09.2
0095:  BCF    03.5
0096:  BCF    09.2
....................       delay_us(200); 
0097:  MOVLW  C8
0098:  MOVWF  2F
0099:  CALL   034
009A:  RETURN
.................... } 
.................... void lcd_setup() 
.................... { 
....................       lcd_command(0x38); delay_ms(5); 
*
0070:  MOVLW  38
0071:  MOVWF  25
0072:  CALL   043
0073:  MOVLW  05
0074:  MOVWF  25
0075:  CALL   05C
....................       lcd_command(0x0c);  
0076:  MOVLW  0C
0077:  MOVWF  25
0078:  CALL   043
....................       lcd_command(0x01); delay_ms(2); 
0079:  MOVLW  01
007A:  MOVWF  25
007B:  CALL   043
007C:  MOVLW  02
007D:  MOVWF  25
007E:  CALL   05C
007F:  BCF    0A.3
0080:  BCF    0A.4
0081:  GOTO   39E (RETURN)
.................... } 
....................  
....................  
.................... unsigned int16 temp2, temp4; 
....................  
.................... void do_nhiet_do_va_hien_thi() 
.................... { 
....................    set_adc_channel(2); 
*
025C:  MOVLW  08
025D:  MOVWF  78
025E:  MOVF   1F,W
025F:  ANDLW  C3
0260:  IORWF  78,W
0261:  MOVWF  1F
....................    temp2 = read_adc()*0.4887; 
0262:  BSF    1F.1
0263:  BTFSC  1F.1
0264:  GOTO   263
0265:  MOVF   1E,W
0266:  MOVWF  7A
0267:  BSF    03.5
0268:  MOVF   1E,W
0269:  BCF    03.5
026A:  MOVWF  25
026B:  MOVF   1E,W
026C:  MOVWF  26
026D:  MOVWF  28
026E:  MOVF   25,W
026F:  MOVWF  27
0270:  CALL   0F1
0271:  MOVF   7A,W
0272:  MOVWF  2A
0273:  MOVF   79,W
0274:  MOVWF  29
0275:  MOVF   78,W
0276:  MOVWF  28
0277:  MOVF   77,W
0278:  MOVWF  27
0279:  MOVLW  E3
027A:  MOVWF  2E
027B:  MOVLW  36
027C:  MOVWF  2D
027D:  MOVLW  7A
027E:  MOVWF  2C
027F:  MOVLW  7D
0280:  MOVWF  2B
0281:  CALL   10E
0282:  MOVF   7A,W
0283:  MOVWF  28
0284:  MOVF   79,W
0285:  MOVWF  27
0286:  MOVF   78,W
0287:  MOVWF  26
0288:  MOVF   77,W
0289:  MOVWF  25
028A:  CALL   183
028B:  MOVF   79,W
028C:  MOVWF  21
028D:  MOVF   78,W
028E:  MOVWF  20
....................     
....................    set_adc_channel(4); 
028F:  MOVLW  10
0290:  MOVWF  78
0291:  MOVF   1F,W
0292:  ANDLW  C3
0293:  IORWF  78,W
0294:  MOVWF  1F
....................    temp4 = read_adc()*0.4887; 
0295:  BSF    1F.1
0296:  BTFSC  1F.1
0297:  GOTO   296
0298:  MOVF   1E,W
0299:  MOVWF  7A
029A:  BSF    03.5
029B:  MOVF   1E,W
029C:  BCF    03.5
029D:  MOVWF  25
029E:  MOVF   1E,W
029F:  MOVWF  26
02A0:  MOVWF  28
02A1:  MOVF   25,W
02A2:  MOVWF  27
02A3:  CALL   0F1
02A4:  MOVF   7A,W
02A5:  MOVWF  2A
02A6:  MOVF   79,W
02A7:  MOVWF  29
02A8:  MOVF   78,W
02A9:  MOVWF  28
02AA:  MOVF   77,W
02AB:  MOVWF  27
02AC:  MOVLW  E3
02AD:  MOVWF  2E
02AE:  MOVLW  36
02AF:  MOVWF  2D
02B0:  MOVLW  7A
02B1:  MOVWF  2C
02B2:  MOVLW  7D
02B3:  MOVWF  2B
02B4:  CALL   10E
02B5:  MOVF   7A,W
02B6:  MOVWF  28
02B7:  MOVF   79,W
02B8:  MOVWF  27
02B9:  MOVF   78,W
02BA:  MOVWF  26
02BB:  MOVF   77,W
02BC:  MOVWF  25
02BD:  CALL   183
02BE:  MOVF   79,W
02BF:  MOVWF  23
02C0:  MOVF   78,W
02C1:  MOVWF  22
....................     
....................    lcd_command(0x80); 
02C2:  MOVLW  80
02C3:  MOVWF  25
02C4:  CALL   043
....................    printf(lcd_data,"%02lu do C",temp2); 
02C5:  MOVLW  0B
02C6:  MOVWF  04
02C7:  MOVF   21,W
02C8:  MOVWF  26
02C9:  MOVF   20,W
02CA:  MOVWF  25
02CB:  CALL   1A2
02CC:  MOVLW  06
02CD:  BSF    03.6
02CE:  MOVWF  0D
02CF:  MOVLW  00
02D0:  MOVWF  0F
02D1:  BSF    03.0
02D2:  MOVLW  05
02D3:  BCF    03.6
02D4:  MOVWF  25
02D5:  CALL   205
....................    lcd_command(0x80+9); 
02D6:  MOVLW  89
02D7:  MOVWF  25
02D8:  CALL   043
....................    printf(lcd_data,"%02lu do C",temp4); 
02D9:  MOVLW  0B
02DA:  MOVWF  04
02DB:  MOVF   23,W
02DC:  MOVWF  26
02DD:  MOVF   22,W
02DE:  MOVWF  25
02DF:  CALL   1A2
02E0:  MOVLW  0C
02E1:  BSF    03.6
02E2:  MOVWF  0D
02E3:  MOVLW  00
02E4:  MOVWF  0F
02E5:  BSF    03.0
02E6:  MOVLW  05
02E7:  BCF    03.6
02E8:  MOVWF  25
02E9:  CALL   205
02EA:  BCF    0A.3
02EB:  BCF    0A.4
02EC:  GOTO   3BC (RETURN)
.................... } 
....................  
.................... void dieukhien() 
.................... { 
....................    if(temp2 < 50 && temp4 < 50) 
02ED:  MOVF   21,F
02EE:  BTFSS  03.2
02EF:  GOTO   308
02F0:  MOVF   20,W
02F1:  SUBLW  31
02F2:  BTFSS  03.0
02F3:  GOTO   308
02F4:  MOVF   23,F
02F5:  BTFSS  03.2
02F6:  GOTO   308
02F7:  MOVF   22,W
02F8:  SUBLW  31
02F9:  BTFSS  03.0
02FA:  GOTO   308
....................    { 
....................       output_low(pin_c1); 
02FB:  BCF    24.1
02FC:  MOVF   24,W
02FD:  BSF    03.5
02FE:  MOVWF  07
02FF:  BCF    03.5
0300:  BCF    07.1
....................       output_low(pin_c3); 
0301:  BCF    24.3
0302:  MOVF   24,W
0303:  BSF    03.5
0304:  MOVWF  07
0305:  BCF    03.5
0306:  BCF    07.3
....................    } 
0307:  GOTO   376
....................    else if(temp2 > 50 && temp4 < 50) 
0308:  MOVF   21,F
0309:  BTFSS  03.2
030A:  GOTO   30F
030B:  MOVF   20,W
030C:  SUBLW  32
030D:  BTFSC  03.0
030E:  GOTO   32D
030F:  MOVF   23,F
0310:  BTFSS  03.2
0311:  GOTO   32D
0312:  MOVF   22,W
0313:  SUBLW  31
0314:  BTFSS  03.0
0315:  GOTO   32D
....................    { 
....................       lcd_command(0xc0); 
0316:  MOVLW  C0
0317:  MOVWF  25
0318:  CALL   043
....................       lcd_data("Q.NHIET   LM35-4"); 
0319:  MOVLW  10
031A:  BSF    03.6
031B:  MOVWF  0D
031C:  MOVLW  00
031D:  MOVWF  0F
031E:  BCF    03.6
031F:  CALL   09B
....................        
....................       output_high(pin_c1); 
0320:  BCF    24.1
0321:  MOVF   24,W
0322:  BSF    03.5
0323:  MOVWF  07
0324:  BCF    03.5
0325:  BSF    07.1
....................       output_low(pin_c3); 
0326:  BCF    24.3
0327:  MOVF   24,W
0328:  BSF    03.5
0329:  MOVWF  07
032A:  BCF    03.5
032B:  BCF    07.3
....................    } 
032C:  GOTO   376
....................    else if(temp2 < 50 && temp4 > 50) 
032D:  MOVF   21,F
032E:  BTFSS  03.2
032F:  GOTO   352
0330:  MOVF   20,W
0331:  SUBLW  31
0332:  BTFSS  03.0
0333:  GOTO   352
0334:  MOVF   23,F
0335:  BTFSS  03.2
0336:  GOTO   33B
0337:  MOVF   22,W
0338:  SUBLW  32
0339:  BTFSC  03.0
033A:  GOTO   352
....................    { 
....................       lcd_command(0xc0); 
033B:  MOVLW  C0
033C:  MOVWF  25
033D:  CALL   043
....................       lcd_data("LM35-2   Q.NHIET"); 
033E:  MOVLW  19
033F:  BSF    03.6
0340:  MOVWF  0D
0341:  MOVLW  00
0342:  MOVWF  0F
0343:  BCF    03.6
0344:  CALL   09B
....................        
....................       output_high(pin_c1); 
0345:  BCF    24.1
0346:  MOVF   24,W
0347:  BSF    03.5
0348:  MOVWF  07
0349:  BCF    03.5
034A:  BSF    07.1
....................       output_low(pin_c3); 
034B:  BCF    24.3
034C:  MOVF   24,W
034D:  BSF    03.5
034E:  MOVWF  07
034F:  BCF    03.5
0350:  BCF    07.3
....................    } 
0351:  GOTO   376
....................    else if(temp2 > 50 && temp4 > 50) 
0352:  MOVF   21,F
0353:  BTFSS  03.2
0354:  GOTO   359
0355:  MOVF   20,W
0356:  SUBLW  32
0357:  BTFSC  03.0
0358:  GOTO   376
0359:  MOVF   23,F
035A:  BTFSS  03.2
035B:  GOTO   360
035C:  MOVF   22,W
035D:  SUBLW  32
035E:  BTFSC  03.0
035F:  GOTO   376
....................    { 
....................       lcd_command(0xc0); 
0360:  MOVLW  C0
0361:  MOVWF  25
0362:  CALL   043
....................       lcd_data("Q.NHIET  Q.NHIET"); 
0363:  MOVLW  22
0364:  BSF    03.6
0365:  MOVWF  0D
0366:  MOVLW  00
0367:  MOVWF  0F
0368:  BCF    03.6
0369:  CALL   09B
....................        
....................       output_high(pin_c1); 
036A:  BCF    24.1
036B:  MOVF   24,W
036C:  BSF    03.5
036D:  MOVWF  07
036E:  BCF    03.5
036F:  BSF    07.1
....................       output_high(pin_c3); 
0370:  BCF    24.3
0371:  MOVF   24,W
0372:  BSF    03.5
0373:  MOVWF  07
0374:  BCF    03.5
0375:  BSF    07.3
....................    } 
0376:  BCF    0A.3
0377:  BCF    0A.4
0378:  GOTO   3BD (RETURN)
.................... } 
....................  
.................... void main() 
0379:  MOVF   03,W
037A:  ANDLW  1F
037B:  MOVWF  03
037C:  MOVLW  FF
037D:  MOVWF  24
037E:  BSF    03.5
037F:  BSF    03.6
0380:  MOVF   09,W
0381:  ANDLW  C0
0382:  MOVWF  09
0383:  BCF    03.6
0384:  BCF    1F.4
0385:  BCF    1F.5
0386:  MOVLW  00
0387:  BSF    03.6
0388:  MOVWF  08
0389:  BCF    03.5
038A:  CLRF   07
038B:  CLRF   08
038C:  CLRF   09
038D:  BCF    03.7
.................... { 
....................    set_tris_a(0xff); 
038E:  MOVLW  FF
038F:  BSF    03.5
0390:  BCF    03.6
0391:  MOVWF  05
....................    set_tris_c(0); 
0392:  MOVLW  00
0393:  MOVWF  07
0394:  BCF    03.5
0395:  MOVWF  24
....................    set_tris_d(0); 
0396:  BSF    03.5
0397:  MOVWF  08
....................    set_tris_e(0); 
0398:  BCF    09.0
0399:  BCF    09.1
039A:  BCF    09.2
039B:  BCF    09.3
....................     
....................    lcd_setup(); 
039C:  BCF    03.5
039D:  GOTO   070
....................    lcd_command(0xc0); 
039E:  MOVLW  C0
039F:  MOVWF  25
03A0:  CALL   043
....................    printf(lcd_data,"LM35-2    LM35-4"); 
03A1:  MOVLW  2B
03A2:  BSF    03.6
03A3:  MOVWF  0D
03A4:  MOVLW  00
03A5:  MOVWF  0F
03A6:  BCF    03.6
03A7:  CALL   09B
....................     
....................    setup_adc(adc_clock_div_32); 
03A8:  BCF    1F.6
03A9:  BSF    1F.7
03AA:  BSF    03.5
03AB:  BSF    1F.7
03AC:  BCF    03.5
03AD:  BSF    1F.0
....................    setup_adc_ports(san2 | san4 | vss_vdd); 
03AE:  BSF    03.5
03AF:  BSF    03.6
03B0:  MOVF   09,W
03B1:  ANDLW  C0
03B2:  MOVWF  09
03B3:  BCF    03.6
03B4:  BCF    1F.4
03B5:  BCF    1F.5
03B6:  MOVLW  14
03B7:  BSF    03.6
03B8:  MOVWF  08
....................     
....................    while(true) 
....................    { 
....................       do_nhiet_do_va_hien_thi(); 
03B9:  BCF    03.5
03BA:  BCF    03.6
03BB:  GOTO   25C
....................       dieukhien(); 
03BC:  GOTO   2ED
03BD:  GOTO   3BB
....................    } 
.................... } 
03BE:  SLEEP

Configuration Fuses:
   Word  1: 2FE2   HS NOWDT PUT MCLR NOPROTECT NOCPD BROWNOUT IESO FCMEN NOLVP NODEBUG
   Word  2: 3FFF   BORV40 NOWRT
