CCS PCM C Compiler, Version 5.015, 5967               11-May-25 22:26

               Filename:   E:\University\Nam 3\2024_2025_HK2\Vi xu ly\Giai_de_vxl_hk2_2023\Cau5\Cau5.lst

               ROM used:   78 words (1%)
                           Largest free fragment is 2048
               RAM used:   6 (2%) at main() level
                           8 (2%) worst case
               Stack used: 1 locations
               Stack size: 8

*
0000:  MOVLW  00
0001:  MOVWF  0A
0002:  GOTO   01E
0003:  NOP
.................... /* 
.................... Giai thich nguyen li delay 1ms: 
....................  
.................... Timer1 dem xung noi de tao ra thoi gian delay, truoc khi xung duoc dua vao timer1 phai qua bo chia 4, gia su dung thach anh tan so 20MHz  
.................... => Fosc = 20MHz - tao ra 20.000.000 xung trong 1 giay => di qua bo chia 4 roi den timer => tan so dao dong tai timer = 5.000.000 xung trong 1giay. 
.................... Muon tinh 1ms = 10^(-3)giay tao duoc bao nhieu xung, tinh bang cach tam xuat => 10^(-3)*5.000.000=5000xung 1 giay 
.................... => Cho timer1 dem tu 0 den 5000 se tao ra duoc delay 1ms 
.................... */ 
.................... #include<16f887.h> 
.................... //////////// Standard Header file for the PIC16F887 device //////////////// 
.................... /////////////////////////////////////////////////////////////////////////// 
.................... ////        (C) Copyright 1996, 2013 Custom Computer Services          //// 
.................... //// This source code may only be used by licensed users of the CCS C  //// 
.................... //// compiler.  This source code may only be distributed to other      //// 
.................... //// licensed users of the CCS C compiler.  No other use, reproduction //// 
.................... //// or distribution is permitted without written permission.          //// 
.................... //// Derivative programs created using this software in object code    //// 
.................... //// form are not restricted in any way.                               //// 
.................... /////////////////////////////////////////////////////////////////////////// 
.................... #device PIC16F887 
....................  
.................... #list 
....................  
.................... #fuses hs 
.................... #use delay(clock=20M) 
....................  
.................... void delay_1ms() 
.................... { 
....................    set_timer1(0); 
0004:  CLRF   0E
0005:  CLRF   0F
0006:  CLRF   0E
....................    while(get_timer1() < 5000); 
0007:  MOVF   0F,W
0008:  MOVWF  7A
0009:  MOVF   0E,W
000A:  MOVWF  77
000B:  MOVF   0F,W
000C:  SUBWF  7A,W
000D:  BTFSS  03.2
000E:  GOTO   007
000F:  MOVF   77,W
0010:  MOVWF  21
0011:  MOVF   7A,W
0012:  MOVWF  22
0013:  MOVF   22,W
0014:  SUBLW  13
0015:  BTFSS  03.0
0016:  GOTO   01D
0017:  BTFSS  03.2
0018:  GOTO   007
0019:  MOVF   21,W
001A:  SUBLW  87
001B:  BTFSC  03.0
001C:  GOTO   007
001D:  RETURN
.................... } 
....................  
.................... int8 i=0; 
....................  
.................... void main() 
001E:  MOVF   03,W
001F:  ANDLW  1F
0020:  MOVWF  03
0021:  CLRF   20
0022:  BSF    03.5
0023:  BSF    03.6
0024:  MOVF   09,W
0025:  ANDLW  C0
0026:  MOVWF  09
0027:  BCF    03.6
0028:  BCF    1F.4
0029:  BCF    1F.5
002A:  MOVLW  00
002B:  BSF    03.6
002C:  MOVWF  08
002D:  BCF    03.5
002E:  CLRF   07
002F:  CLRF   08
0030:  CLRF   09
0031:  BCF    03.7
.................... { 
....................    set_tris_e(0); 
0032:  BSF    03.5
0033:  BCF    03.6
0034:  BCF    09.0
0035:  BCF    09.1
0036:  BCF    09.2
0037:  BCF    09.3
....................     
....................    setup_timer_1(t1_internal | t1_div_by_1); 
0038:  MOVLW  05
0039:  BCF    03.5
003A:  MOVWF  10
....................     
....................    while(true) 
....................    { 
....................       output_high(pin_e0); 
003B:  BSF    03.5
003C:  BCF    09.0
003D:  BCF    03.5
003E:  BSF    09.0
....................       delay_1ms(); 
003F:  CALL   004
....................       output_low(pin_e0); 
0040:  BSF    03.5
0041:  BCF    09.0
0042:  BCF    03.5
0043:  BCF    09.0
....................       for(i=0; i<3; i++) 
0044:  CLRF   20
0045:  MOVF   20,W
0046:  SUBLW  02
0047:  BTFSS  03.0
0048:  GOTO   04C
....................          delay_1ms(); 
0049:  CALL   004
004A:  INCF   20,F
004B:  GOTO   045
004C:  GOTO   03B
....................    } 
.................... } 
004D:  SLEEP

Configuration Fuses:
   Word  1: 2FE2   HS NOWDT PUT MCLR NOPROTECT NOCPD BROWNOUT IESO FCMEN NOLVP NODEBUG
   Word  2: 3FFF   BORV40 NOWRT
