CCS PCM C Compiler, Version 5.015, 5967               07-Jul-25 11:01

               Filename:   E:\University\Nam 3\2024_2025_HK2\Vi xu ly\Giai_de_vxl_hk2_2025\Cau2\Cau2.lst

               ROM used:   116 words (1%)
                           Largest free fragment is 2048
               RAM used:   6 (2%) at main() level
                           7 (2%) worst case
               Stack used: 1 locations
               Stack size: 8

*
0000:  MOVLW  00
0001:  MOVWF  0A
0002:  GOTO   018
0003:  NOP
.................... #include <16f887.h> 
.................... //////////// Standard Header file for the PIC16F887 device //////////////// 
.................... /////////////////////////////////////////////////////////////////////////// 
.................... ////        (C) Copyright 1996, 2013 Custom Computer Services          //// 
.................... //// This source code may only be used by licensed users of the CCS C  //// 
.................... //// compiler.  This source code may only be distributed to other      //// 
.................... //// licensed users of the CCS C compiler.  No other use, reproduction //// 
.................... //// or distribution is permitted without written permission.          //// 
.................... //// Derivative programs created using this software in object code    //// 
.................... //// form are not restricted in any way.                               //// 
.................... /////////////////////////////////////////////////////////////////////////// 
.................... #device PIC16F887 
....................  
.................... #list 
....................  
.................... #fuses intrc_io 
.................... #use delay(clock=8M) 
0004:  MOVLW  21
0005:  MOVWF  04
0006:  BCF    03.7
0007:  MOVF   00,W
0008:  BTFSC  03.2
0009:  GOTO   017
000A:  MOVLW  02
000B:  MOVWF  78
000C:  CLRF   77
000D:  DECFSZ 77,F
000E:  GOTO   00D
000F:  DECFSZ 78,F
0010:  GOTO   00C
0011:  MOVLW  97
0012:  MOVWF  77
0013:  DECFSZ 77,F
0014:  GOTO   013
0015:  DECFSZ 00,F
0016:  GOTO   00A
0017:  RETURN
....................  
.................... const unsigned int8 m7d[10]={0xc0,0xf9,0xa4,0xb0,0x99,0x92,0x82,0xf8,0x80,0x90}; 
....................  
.................... void main() 
0018:  MOVF   03,W
0019:  ANDLW  1F
001A:  MOVWF  03
001B:  MOVLW  71
001C:  BSF    03.5
001D:  MOVWF  0F
001E:  MOVF   0F,W
001F:  MOVLW  FF
0020:  BCF    03.5
0021:  MOVWF  20
0022:  BSF    03.5
0023:  BSF    03.6
0024:  MOVF   09,W
0025:  ANDLW  C0
0026:  MOVWF  09
0027:  BCF    03.6
0028:  BCF    1F.4
0029:  BCF    1F.5
002A:  MOVLW  00
002B:  BSF    03.6
002C:  MOVWF  08
002D:  BCF    03.5
002E:  CLRF   07
002F:  CLRF   08
0030:  CLRF   09
0031:  BCF    03.7
.................... { 
....................    set_tris_c(0); 
0032:  MOVLW  00
0033:  BSF    03.5
0034:  BCF    03.6
0035:  MOVWF  07
0036:  BCF    03.5
0037:  MOVWF  20
....................    set_tris_d(0); 
0038:  BSF    03.5
0039:  MOVWF  08
....................     
....................    while(true) 
....................    { 
....................       output_c(m7d[1]); 
003A:  MOVLW  00
003B:  BCF    03.5
003C:  MOVWF  20
003D:  BSF    03.5
003E:  CLRF   07
003F:  MOVLW  F9
0040:  BCF    03.5
0041:  MOVWF  07
....................       output_low(pin_d0); 
0042:  BSF    03.5
0043:  BCF    08.0
0044:  BCF    03.5
0045:  BCF    08.0
....................       delay_ms(1); 
0046:  MOVLW  01
0047:  MOVWF  21
0048:  CALL   004
....................       output_high(pin_d0); 
0049:  BSF    03.5
004A:  BCF    08.0
004B:  BCF    03.5
004C:  BSF    08.0
....................        
....................       output_c(m7d[1]); 
004D:  MOVLW  00
004E:  MOVWF  20
004F:  BSF    03.5
0050:  CLRF   07
0051:  MOVLW  F9
0052:  BCF    03.5
0053:  MOVWF  07
....................       output_low(pin_d1); 
0054:  BSF    03.5
0055:  BCF    08.1
0056:  BCF    03.5
0057:  BCF    08.1
....................       delay_ms(1); 
0058:  MOVLW  01
0059:  MOVWF  21
005A:  CALL   004
....................       output_high(pin_d1); 
005B:  BSF    03.5
005C:  BCF    08.1
005D:  BCF    03.5
005E:  BSF    08.1
....................        
....................       output_c(m7d[0]); 
005F:  MOVLW  00
0060:  MOVWF  20
0061:  BSF    03.5
0062:  CLRF   07
0063:  MOVLW  C0
0064:  BCF    03.5
0065:  MOVWF  07
....................       output_low(pin_d2); 
0066:  BSF    03.5
0067:  BCF    08.2
0068:  BCF    03.5
0069:  BCF    08.2
....................       delay_ms(1); 
006A:  MOVLW  01
006B:  MOVWF  21
006C:  CALL   004
....................       output_high(pin_d2); 
006D:  BSF    03.5
006E:  BCF    08.2
006F:  BCF    03.5
0070:  BSF    08.2
0071:  BSF    03.5
0072:  GOTO   03A
....................    } 
.................... } 
....................  
0073:  SLEEP
....................  

Configuration Fuses:
   Word  1: 2FE4   INTRC_IO NOWDT PUT MCLR NOPROTECT NOCPD BROWNOUT IESO FCMEN NOLVP NODEBUG
   Word  2: 3FFF   BORV40 NOWRT
